; Function Attrs: nounwind uwtable
define internal range(i32 0, 2) i32 @test_known_critical_crl() #0 {
  %1 = alloca i64, align 8
  call void @llvm.lifetime.start.p0(i64 8, ptr nonnull %1) #3
  store i64 0, ptr %1, align 8, !tbaa !4
  %2 = call ptr @glue_strings(ptr noundef nonnull @kKnownCriticalCRL, ptr noundef nonnull %1) #3
  %3 = load i64, ptr %1, align 8, !tbaa !4
  %4 = trunc i64 %3 to i32
  %5 = call ptr @BIO_new_mem_buf(ptr noundef %2, i32 noundef %4) #3
  call void @llvm.lifetime.end.p0(i64 8, ptr nonnull %1) #3
  %6 = icmp eq ptr %5, null
  br i1 %6, label %7, label %8

7:                                                ; preds = %0
  call void @CRYPTO_free(ptr noundef %2, ptr noundef nonnull @.str, i32 noundef 215) #3
  br label %CRL_from_strings.exit

8:                                                ; preds = %0
  %9 = call ptr @PEM_read_bio_X509_CRL(ptr noundef nonnull %5, ptr noundef null, ptr noundef null, ptr noundef null) #3
  call void @CRYPTO_free(ptr noundef %2, ptr noundef nonnull @.str, i32 noundef 221) #3
  %10 = call i32 @BIO_free(ptr noundef nonnull %5) #3
  br label %CRL_from_strings.exit

CRL_from_strings.exit:                            ; preds = %7, %8
  %.0.i = phi ptr [ null, %7 ], [ %9, %8 ]
  %11 = call i32 @test_ptr(ptr noundef nonnull @.str, i32 noundef 359, ptr noundef nonnull @.str.98, ptr noundef %.0.i) #3
  %.not = icmp eq i32 %11, 0
  br i1 %.not, label %22, label %12

12:                                               ; preds = %CRL_from_strings.exit
  %13 = load ptr, ptr @test_leaf, align 8, !tbaa !8
  %14 = load ptr, ptr @test_root, align 8, !tbaa !8
  %15 = call ptr @OPENSSL_sk_new_null() #3
  %16 = call i32 @OPENSSL_sk_push(ptr noundef %15, ptr noundef %.0.i) #3
  %17 = call i32 @X509_CRL_up_ref(ptr noundef %.0.i) #3
  %18 = call fastcc i32 @verify(ptr noundef %13, ptr noundef %14, ptr noundef %15)
  %19 = call i32 @test_int_eq(ptr noundef nonnull @.str, i32 noundef 362, ptr noundef nonnull @.str.99, ptr noundef nonnull @.str.63, i32 noundef %18, i32 noundef 0) #3
  %20 = icmp ne i32 %19, 0
  %21 = zext i1 %20 to i32
  br label %22

22:                                               ; preds = %12, %CRL_from_strings.exit
  %23 = phi i32 [ 0, %CRL_from_strings.exit ], [ %21, %12 ]
  call void @X509_CRL_free(ptr noundef %.0.i) #3
  ret i32 %23
}